target datalayout = "e-m:e-p270:32:32-p271:32:32-p272:64:64-i64:64-i128:128-f80:128-n8:16:32:64-S128"
target triple = "x86_64-pc-linux-gnu"

%struct._zval_struct = type { %union._zend_value, %union.anon.0, %union.anon.3 }
%union._zend_value = type { i64 }
%union.anon.0 = type { i32 }
%union.anon.3 = type { i32 }
%struct._zend_array = type { %struct._zend_refcounted_h, %union.anon.5, i32, %union.anon.7, i32, i32, i32, i32, i64, ptr }
%struct._zend_refcounted_h = type { i32, %union.anon }
%union.anon = type { i32 }
%union.anon.5 = type { i32 }
%union.anon.7 = type { ptr }
%struct._zend_object = type { %struct._zend_refcounted_h, i32, ptr, ptr, ptr, [1 x %struct._zval_struct] }
%struct._zend_class_entry = type { i8, ptr, %union.anon.4, i32, i32, i32, i32, ptr, ptr, ptr, %struct._zend_array, %struct._zend_array, %struct._zend_array, ptr, ptr, ptr, ptr, ptr, ptr, ptr, ptr, ptr, ptr, ptr, ptr, ptr, ptr, ptr, ptr, ptr, ptr, ptr, %union.anon.8, ptr, ptr, ptr, ptr, i32, i32, %union.anon.9, ptr, ptr, ptr, ptr, i32, ptr, ptr, %union.anon.10 }
%union.anon.4 = type { ptr }
%union.anon.8 = type { ptr }
%union.anon.9 = type { ptr }
%union.anon.10 = type { %struct.anon.11 }
%struct.anon.11 = type { ptr, i32, i32 }
%struct._zend_string = type { %struct._zend_refcounted_h, i64, i64, [1 x i8] }
%struct.anon.1 = type { i8, i8, %union.anon.2 }
%union.anon.2 = type { i16 }

; Function Attrs: nounwind uwtable
define ptr @zend_get_property_guard(ptr noundef %0, ptr noundef %1) #0 {
  %3 = alloca ptr, align 8
  %4 = alloca ptr, align 8
  %5 = alloca ptr, align 8
  %6 = alloca ptr, align 8
  %7 = alloca ptr, align 8
  %8 = alloca ptr, align 8
  %9 = alloca ptr, align 8
  %10 = alloca ptr, align 8
  %11 = alloca %struct._zval_struct, align 8
  %12 = alloca ptr, align 8
  %13 = alloca ptr, align 8
  %14 = alloca ptr, align 8
  %15 = alloca ptr, align 8
  %16 = alloca ptr, align 8
  %17 = alloca %struct._zval_struct, align 8
  %18 = alloca ptr, align 8
  %19 = alloca ptr, align 8
  %20 = alloca ptr, align 8
  %21 = alloca i32, align 4
  %22 = alloca i32, align 4
  %23 = alloca ptr, align 8
  %24 = alloca ptr, align 8
  %25 = alloca ptr, align 8
  %26 = alloca ptr, align 8
  %27 = alloca ptr, align 8
  %28 = alloca ptr, align 8
  %29 = alloca ptr, align 8
  %30 = alloca ptr, align 8
  %31 = alloca ptr, align 8
  %32 = alloca ptr, align 8
  %33 = alloca ptr, align 8
  %34 = alloca ptr, align 8
  %35 = alloca ptr, align 8
  %36 = alloca ptr, align 8
  %37 = alloca ptr, align 8
  %38 = alloca ptr, align 8
  %39 = alloca ptr, align 8
  %40 = alloca ptr, align 8
  %41 = alloca ptr, align 8
  %42 = alloca ptr, align 8
  store ptr %0, ptr %31, align 8
  store ptr %1, ptr %32, align 8
  %43 = load ptr, ptr %31, align 8
  %44 = getelementptr inbounds %struct._zend_object, ptr %43, i32 0, i32 2
  %45 = load ptr, ptr %44, align 8
  %46 = getelementptr inbounds %struct._zend_class_entry, ptr %45, i32 0, i32 4
  %47 = load i32, ptr %46, align 4
  %48 = and i32 %47, 2048
  %49 = icmp ne i32 %48, 0
  call void @llvm.assume(i1 %49)
  %50 = load ptr, ptr %31, align 8
  store ptr %50, ptr %27, align 8
  %51 = load ptr, ptr %27, align 8
  %52 = getelementptr inbounds %struct._zend_object, ptr %51, i32 0, i32 5
  %53 = load ptr, ptr %27, align 8
  %54 = getelementptr inbounds %struct._zend_object, ptr %53, i32 0, i32 2
  %55 = load ptr, ptr %54, align 8
  %56 = getelementptr inbounds %struct._zend_class_entry, ptr %55, i32 0, i32 5
  %57 = load i32, ptr %56, align 8
  %58 = sext i32 %57 to i64
  %59 = getelementptr inbounds %struct._zval_struct, ptr %52, i64 %58
  store ptr %59, ptr %34, align 8
  %60 = load ptr, ptr %34, align 8
  store ptr %60, ptr %28, align 8
  %61 = load ptr, ptr %28, align 8
  %62 = getelementptr inbounds %struct._zval_struct, ptr %61, i32 0, i32 1
  %63 = load i8, ptr %62, align 8
  %64 = zext i8 %63 to i32
  %65 = icmp eq i32 %64, 6
  %66 = xor i1 %65, true
  %67 = xor i1 %66, true
  %68 = zext i1 %67 to i32
  %69 = sext i32 %68 to i64
  %70 = icmp ne i64 %69, 0
  br i1 %70, label %71, label %239

71:                                               ; preds = %2
  %72 = load ptr, ptr %34, align 8
  %73 = getelementptr inbounds %struct._zval_struct, ptr %72, i32 0, i32 0
  %74 = load ptr, ptr %73, align 8
  store ptr %74, ptr %36, align 8
  %75 = load ptr, ptr %36, align 8
  %76 = load ptr, ptr %32, align 8
  %77 = icmp eq ptr %75, %76
  %78 = xor i1 %77, true
  %79 = xor i1 %78, true
  %80 = zext i1 %79 to i32
  %81 = sext i32 %80 to i64
  %82 = icmp ne i64 %81, 0
  br i1 %82, label %104, label %83

83:                                               ; preds = %71
  %84 = load ptr, ptr %36, align 8
  %85 = load ptr, ptr %32, align 8
  store ptr %84, ptr %25, align 8
  store ptr %85, ptr %26, align 8
  %86 = load ptr, ptr %25, align 8
  %87 = getelementptr inbounds %struct._zend_string, ptr %86, i32 0, i32 2
  %88 = load i64, ptr %87, align 8
  %89 = load ptr, ptr %26, align 8
  %90 = getelementptr inbounds %struct._zend_string, ptr %89, i32 0, i32 2
  %91 = load i64, ptr %90, align 8
  %92 = icmp eq i64 %88, %91
  br i1 %92, label %93, label %97

93:                                               ; preds = %83
  %94 = load ptr, ptr %25, align 8
  %95 = load ptr, ptr %26, align 8
  %96 = call zeroext i1 @zend_string_equal_val(ptr noundef %94, ptr noundef %95) #10
  br label %97

97:                                               ; preds = %93, %83
  %98 = phi i1 [ false, %83 ], [ %96, %93 ]
  %99 = xor i1 %98, true
  %100 = xor i1 %99, true
  %101 = zext i1 %100 to i32
  %102 = sext i32 %101 to i64
  %103 = icmp ne i64 %102, 0
  br i1 %103, label %104, label %107

104:                                              ; preds = %97, %71
  %105 = load ptr, ptr %34, align 8
  %106 = getelementptr inbounds %struct._zval_struct, ptr %105, i32 0, i32 2
  store ptr %106, ptr %30, align 8
  br label %327

107:                                              ; preds = %97
  %108 = load ptr, ptr %34, align 8
  %109 = getelementptr inbounds %struct._zval_struct, ptr %108, i32 0, i32 2
  %110 = load i32, ptr %109, align 4
  %111 = icmp eq i32 %110, 0
  %112 = xor i1 %111, true
  %113 = xor i1 %112, true
  %114 = zext i1 %113 to i32
  %115 = sext i32 %114 to i64
  %116 = icmp ne i64 %115, 0
  br i1 %116, label %117, label %175

117:                                              ; preds = %107
  %118 = load ptr, ptr %34, align 8
  store ptr %118, ptr %23, align 8
  %119 = load ptr, ptr %23, align 8
  %120 = getelementptr inbounds %struct._zval_struct, ptr %119, i32 0, i32 1
  %121 = getelementptr inbounds %struct.anon.1, ptr %120, i32 0, i32 1
  %122 = load i8, ptr %121, align 1
  %123 = zext i8 %122 to i32
  %124 = icmp ne i32 %123, 0
  br i1 %124, label %125, label %145

125:                                              ; preds = %117
  %126 = load ptr, ptr %23, align 8
  store ptr %126, ptr %6, align 8
  %127 = load ptr, ptr %6, align 8
  %128 = getelementptr inbounds %struct._zval_struct, ptr %127, i32 0, i32 1
  %129 = getelementptr inbounds %struct.anon.1, ptr %128, i32 0, i32 1
  %130 = load i8, ptr %129, align 1
  %131 = zext i8 %130 to i32
  %132 = icmp ne i32 %131, 0
  call void @llvm.assume(i1 %132)
  %133 = load ptr, ptr %6, align 8
  %134 = load ptr, ptr %133, align 8
  store ptr %134, ptr %3, align 8
  %135 = load ptr, ptr %3, align 8
  %136 = load i32, ptr %135, align 4
  %137 = icmp ugt i32 %136, 0
  call void @llvm.assume(i1 %137)
  %138 = load ptr, ptr %3, align 8
  %139 = load i32, ptr %138, align 4
  %140 = add i32 %139, -1
  store i32 %140, ptr %138, align 4
  %141 = icmp ne i32 %140, 0
  br i1 %141, label %145, label %142

142:                                              ; preds = %125
  %143 = load ptr, ptr %23, align 8
  %144 = load ptr, ptr %143, align 8
  call void @_efree(ptr noundef %144) #10
  br label %145

145:                                              ; preds = %142, %125, %117
  br label %146

146:                                              ; preds = %145
  %147 = load ptr, ptr %34, align 8
  store ptr %147, ptr %37, align 8
  %148 = load ptr, ptr %32, align 8
  store ptr %148, ptr %38, align 8
  %149 = load ptr, ptr %38, align 8
  %150 = load ptr, ptr %37, align 8
  %151 = getelementptr inbounds %struct._zval_struct, ptr %150, i32 0, i32 0
  store ptr %149, ptr %151, align 8
  %152 = load ptr, ptr %38, align 8
  %153 = getelementptr inbounds %struct._zend_string, ptr %152, i32 0, i32 0
  %154 = getelementptr inbounds %struct._zend_refcounted_h, ptr %153, i32 0, i32 1
  %155 = load i32, ptr %154, align 4
  store i32 %155, ptr %21, align 4
  %156 = load i32, ptr %21, align 4
  %157 = and i32 %156, 1008
  %158 = and i32 %157, 64
  %159 = icmp ne i32 %158, 0
  br i1 %159, label %160, label %163

160:                                              ; preds = %146
  %161 = load ptr, ptr %37, align 8
  %162 = getelementptr inbounds %struct._zval_struct, ptr %161, i32 0, i32 1
  store i32 6, ptr %162, align 8
  br label %171

163:                                              ; preds = %146
  %164 = load ptr, ptr %38, align 8
  %165 = getelementptr inbounds %struct._zend_string, ptr %164, i32 0, i32 0
  store ptr %165, ptr %19, align 8
  %166 = load ptr, ptr %19, align 8
  %167 = load i32, ptr %166, align 4
  %168 = add i32 %167, 1
  store i32 %168, ptr %166, align 4
  %169 = load ptr, ptr %37, align 8
  %170 = getelementptr inbounds %struct._zval_struct, ptr %169, i32 0, i32 1
  store i32 262, ptr %170, align 8
  br label %171

171:                                              ; preds = %163, %160
  br label %172

172:                                              ; preds = %171
  %173 = load ptr, ptr %34, align 8
  %174 = getelementptr inbounds %struct._zval_struct, ptr %173, i32 0, i32 2
  store ptr %174, ptr %30, align 8
  br label %327

175:                                              ; preds = %107
  %176 = call noalias ptr @_emalloc_56()
  store ptr %176, ptr %33, align 8
  %177 = load ptr, ptr %33, align 8
  call void @_zend_hash_init(ptr noundef %177, i32 noundef 8, ptr noundef @zend_property_guard_dtor, i1 noundef zeroext false)
  %178 = load ptr, ptr %33, align 8
  %179 = load ptr, ptr %36, align 8
  %180 = load ptr, ptr %34, align 8
  %181 = getelementptr inbounds %struct._zval_struct, ptr %180, i32 0, i32 2
  %182 = ptrtoint ptr %181 to i64
  %183 = or i64 %182, 1
  %184 = inttoptr i64 %183 to ptr
  store ptr %178, ptr %8, align 8
  store ptr %179, ptr %9, align 8
  store ptr %184, ptr %10, align 8
  %185 = load ptr, ptr %10, align 8
  store ptr %185, ptr %11, align 8
  %186 = getelementptr inbounds %struct._zval_struct, ptr %11, i32 0, i32 1
  store i32 13, ptr %186, align 8
  %187 = load ptr, ptr %8, align 8
  %188 = load ptr, ptr %9, align 8
  %189 = call ptr @zend_hash_add_new(ptr noundef %187, ptr noundef %188, ptr noundef %11) #10
  store ptr %189, ptr %12, align 8
  %190 = load ptr, ptr %12, align 8
  %191 = icmp ne ptr %190, null
  br i1 %191, label %192, label %198

192:                                              ; preds = %175
  %193 = load ptr, ptr %12, align 8
  %194 = load ptr, ptr %193, align 8
  %195 = icmp ne ptr %194, null
  call void @llvm.assume(i1 %195)
  %196 = load ptr, ptr %12, align 8
  %197 = load ptr, ptr %196, align 8
  store ptr %197, ptr %7, align 8
  br label %199

198:                                              ; preds = %175
  store ptr null, ptr %7, align 8
  br label %199

199:                                              ; preds = %198, %192
  %200 = load ptr, ptr %34, align 8
  store ptr %200, ptr %24, align 8
  %201 = load ptr, ptr %24, align 8
  %202 = getelementptr inbounds %struct._zval_struct, ptr %201, i32 0, i32 1
  %203 = getelementptr inbounds %struct.anon.1, ptr %202, i32 0, i32 1
  %204 = load i8, ptr %203, align 1
  %205 = zext i8 %204 to i32
  %206 = icmp ne i32 %205, 0
  br i1 %206, label %207, label %227

207:                                              ; preds = %199
  %208 = load ptr, ptr %24, align 8
  store ptr %208, ptr %5, align 8
  %209 = load ptr, ptr %5, align 8
  %210 = getelementptr inbounds %struct._zval_struct, ptr %209, i32 0, i32 1
  %211 = getelementptr inbounds %struct.anon.1, ptr %210, i32 0, i32 1
  %212 = load i8, ptr %211, align 1
  %213 = zext i8 %212 to i32
  %214 = icmp ne i32 %213, 0
  call void @llvm.assume(i1 %214)
  %215 = load ptr, ptr %5, align 8
  %216 = load ptr, ptr %215, align 8
  store ptr %216, ptr %4, align 8
  %217 = load ptr, ptr %4, align 8
  %218 = load i32, ptr %217, align 4
  %219 = icmp ugt i32 %218, 0
  call void @llvm.assume(i1 %219)
  %220 = load ptr, ptr %4, align 8
  %221 = load i32, ptr %220, align 4
  %222 = add i32 %221, -1
  store i32 %222, ptr %220, align 4
  %223 = icmp ne i32 %222, 0
  br i1 %223, label %227, label %224

224:                                              ; preds = %207
  %225 = load ptr, ptr %24, align 8
  %226 = load ptr, ptr %225, align 8
  call void @_efree(ptr noundef %226) #10
  br label %227

227:                                              ; preds = %224, %207, %199
  br label %228

228:                                              ; preds = %227
  %229 = load ptr, ptr %33, align 8
  store ptr %229, ptr %39, align 8
  %230 = load ptr, ptr %34, align 8
  store ptr %230, ptr %40, align 8
  %231 = load ptr, ptr %39, align 8
  %232 = load ptr, ptr %40, align 8
  %233 = getelementptr inbounds %struct._zval_struct, ptr %232, i32 0, i32 0
  store ptr %231, ptr %233, align 8
  %234 = load ptr, ptr %40, align 8
  %235 = getelementptr inbounds %struct._zval_struct, ptr %234, i32 0, i32 1
  store i32 775, ptr %235, align 8
  br label %236

236:                                              ; preds = %228
  br label %237

237:                                              ; preds = %236
  br label %238

238:                                              ; preds = %237
  br label %305

239:                                              ; preds = %2
  %240 = load ptr, ptr %34, align 8
  store ptr %240, ptr %29, align 8
  %241 = load ptr, ptr %29, align 8
  %242 = getelementptr inbounds %struct._zval_struct, ptr %241, i32 0, i32 1
  %243 = load i8, ptr %242, align 8
  %244 = zext i8 %243 to i32
  %245 = icmp eq i32 %244, 7
  %246 = xor i1 %245, true
  %247 = xor i1 %246, true
  %248 = zext i1 %247 to i32
  %249 = sext i32 %248 to i64
  %250 = icmp ne i64 %249, 0
  br i1 %250, label %251, label %270

251:                                              ; preds = %239
  %252 = load ptr, ptr %34, align 8
  %253 = getelementptr inbounds %struct._zval_struct, ptr %252, i32 0, i32 0
  %254 = load ptr, ptr %253, align 8
  store ptr %254, ptr %33, align 8
  %255 = load ptr, ptr %33, align 8
  %256 = icmp ne ptr %255, null
  call void @llvm.assume(i1 %256)
  %257 = load ptr, ptr %33, align 8
  %258 = load ptr, ptr %32, align 8
  %259 = call ptr @zend_hash_find(ptr noundef %257, ptr noundef %258)
  store ptr %259, ptr %34, align 8
  %260 = load ptr, ptr %34, align 8
  %261 = icmp ne ptr %260, null
  br i1 %261, label %262, label %269

262:                                              ; preds = %251
  %263 = load ptr, ptr %34, align 8
  %264 = getelementptr inbounds %struct._zval_struct, ptr %263, i32 0, i32 0
  %265 = load ptr, ptr %264, align 8
  %266 = ptrtoint ptr %265 to i64
  %267 = and i64 %266, -2
  %268 = inttoptr i64 %267 to ptr
  store ptr %268, ptr %30, align 8
  br label %327

269:                                              ; preds = %251
  br label %304

270:                                              ; preds = %239
  br label %271

271:                                              ; preds = %270
  %272 = load ptr, ptr %34, align 8
  store ptr %272, ptr %41, align 8
  %273 = load ptr, ptr %32, align 8
  store ptr %273, ptr %42, align 8
  %274 = load ptr, ptr %42, align 8
  %275 = load ptr, ptr %41, align 8
  %276 = getelementptr inbounds %struct._zval_struct, ptr %275, i32 0, i32 0
  store ptr %274, ptr %276, align 8
  %277 = load ptr, ptr %42, align 8
  %278 = getelementptr inbounds %struct._zend_string, ptr %277, i32 0, i32 0
  %279 = getelementptr inbounds %struct._zend_refcounted_h, ptr %278, i32 0, i32 1
  %280 = load i32, ptr %279, align 4
  store i32 %280, ptr %22, align 4
  %281 = load i32, ptr %22, align 4
  %282 = and i32 %281, 1008
  %283 = and i32 %282, 64
  %284 = icmp ne i32 %283, 0
  br i1 %284, label %285, label %288

285:                                              ; preds = %271
  %286 = load ptr, ptr %41, align 8
  %287 = getelementptr inbounds %struct._zval_struct, ptr %286, i32 0, i32 1
  store i32 6, ptr %287, align 8
  br label %296

288:                                              ; preds = %271
  %289 = load ptr, ptr %42, align 8
  %290 = getelementptr inbounds %struct._zend_string, ptr %289, i32 0, i32 0
  store ptr %290, ptr %20, align 8
  %291 = load ptr, ptr %20, align 8
  %292 = load i32, ptr %291, align 4
  %293 = add i32 %292, 1
  store i32 %293, ptr %291, align 4
  %294 = load ptr, ptr %41, align 8
  %295 = getelementptr inbounds %struct._zval_struct, ptr %294, i32 0, i32 1
  store i32 262, ptr %295, align 8
  br label %296

296:                                              ; preds = %288, %285
  br label %297

297:                                              ; preds = %296
  %298 = load ptr, ptr %34, align 8
  %299 = getelementptr inbounds %struct._zval_struct, ptr %298, i32 0, i32 2
  %300 = load i32, ptr %299, align 4
  %301 = and i32 %300, -16
  store i32 %301, ptr %299, align 4
  %302 = load ptr, ptr %34, align 8
  %303 = getelementptr inbounds %struct._zval_struct, ptr %302, i32 0, i32 2
  store ptr %303, ptr %30, align 8
  br label %327

304:                                              ; preds = %269
  br label %305

305:                                              ; preds = %304, %238
  %306 = call noalias ptr @_emalloc_8()
  store ptr %306, ptr %35, align 8
  %307 = load ptr, ptr %35, align 8
  store i32 0, ptr %307, align 4
  %308 = load ptr, ptr %33, align 8
  %309 = load ptr, ptr %32, align 8
  %310 = load ptr, ptr %35, align 8
  store ptr %308, ptr %14, align 8
  store ptr %309, ptr %15, align 8
  store ptr %310, ptr %16, align 8
  %311 = load ptr, ptr %16, align 8
  store ptr %311, ptr %17, align 8
  %312 = getelementptr inbounds %struct._zval_struct, ptr %17, i32 0, i32 1
  store i32 13, ptr %312, align 8
  %313 = load ptr, ptr %14, align 8
  %314 = load ptr, ptr %15, align 8
  %315 = call ptr @zend_hash_add_new(ptr noundef %313, ptr noundef %314, ptr noundef %17) #10
  store ptr %315, ptr %18, align 8
  %316 = load ptr, ptr %18, align 8
  %317 = icmp ne ptr %316, null
  br i1 %317, label %318, label %324

318:                                              ; preds = %305
  %319 = load ptr, ptr %18, align 8
  %320 = load ptr, ptr %319, align 8
  %321 = icmp ne ptr %320, null
  call void @llvm.assume(i1 %321)
  %322 = load ptr, ptr %18, align 8
  %323 = load ptr, ptr %322, align 8
  store ptr %323, ptr %13, align 8
  br label %325

324:                                              ; preds = %305
  store ptr null, ptr %13, align 8
  br label %325

325:                                              ; preds = %324, %318
  %326 = load ptr, ptr %13, align 8
  store ptr %326, ptr %30, align 8
  br label %327

327:                                              ; preds = %325, %297, %262, %172, %104
  %328 = load ptr, ptr %30, align 8
  ret ptr %328
}