; Function Attrs: nounwind uwtable
define ptr @zend_get_property_guard(ptr noundef %0, ptr noundef %1) local_unnamed_addr #0 {
  %3 = alloca %struct._zval_struct, align 8
  %4 = alloca %struct._zval_struct, align 8
  %5 = getelementptr inbounds i8, ptr %0, i64 16
  %6 = load ptr, ptr %5, align 8
  %7 = getelementptr inbounds i8, ptr %6, i64 28
  %8 = load i32, ptr %7, align 4
  %9 = and i32 %8, 2048
  %10 = icmp ne i32 %9, 0
  tail call void @llvm.assume(i1 %10)
  %11 = getelementptr inbounds i8, ptr %0, i64 40
  %12 = getelementptr inbounds i8, ptr %6, i64 32
  %13 = load i32, ptr %12, align 8
  %14 = sext i32 %13 to i64
  %15 = getelementptr inbounds %struct._zval_struct, ptr %11, i64 %14
  %16 = getelementptr inbounds i8, ptr %15, i64 8
  %17 = load i8, ptr %16, align 8
  switch i8 %17, label %81 [
    i8 6, label %18
    i8 7, label %73
  ]

18:                                               ; preds = %2
  %19 = load ptr, ptr %15, align 8
  %20 = icmp eq ptr %19, %1
  br i1 %20, label %29, label %21

21:                                               ; preds = %18
  %22 = getelementptr inbounds i8, ptr %19, i64 16
  %23 = load i64, ptr %22, align 8
  %24 = getelementptr inbounds i8, ptr %1, i64 16
  %25 = load i64, ptr %24, align 8
  %26 = icmp eq i64 %23, %25
  br i1 %26, label %27, label %.critedge

27:                                               ; preds = %21
  %28 = tail call zeroext i1 @zend_string_equal_val(ptr noundef nonnull %19, ptr noundef nonnull %1) #15
  br i1 %28, label %29, label %.critedge

29:                                               ; preds = %27, %18
  %30 = getelementptr inbounds i8, ptr %15, i64 12
  br label %98

.critedge:                                        ; preds = %21, %27
  %31 = getelementptr inbounds i8, ptr %15, i64 12
  %32 = load i32, ptr %31, align 4
  %33 = icmp eq i32 %32, 0
  br i1 %33, label %34, label %52

34:                                               ; preds = %.critedge
  %35 = getelementptr inbounds i8, ptr %15, i64 9
  %36 = load i8, ptr %35, align 1
  %.not103 = icmp eq i8 %36, 0
  br i1 %.not103, label %44, label %37

37:                                               ; preds = %34
  %38 = load ptr, ptr %15, align 8
  %39 = load i32, ptr %38, align 4
  %40 = icmp ne i32 %39, 0
  tail call void @llvm.assume(i1 %40)
  %41 = add i32 %39, -1
  store i32 %41, ptr %38, align 4
  %.not104 = icmp eq i32 %41, 0
  br i1 %.not104, label %42, label %44

42:                                               ; preds = %37
  %43 = load ptr, ptr %15, align 8
  tail call void @_efree(ptr noundef %43) #15
  br label %44

44:                                               ; preds = %34, %37, %42
  store ptr %1, ptr %15, align 8
  %45 = getelementptr inbounds i8, ptr %1, i64 4
  %46 = load i32, ptr %45, align 4
  %47 = and i32 %46, 64
  %.not105 = icmp eq i32 %47, 0
  br i1 %.not105, label %48, label %51

48:                                               ; preds = %44
  %49 = load i32, ptr %1, align 4
  %50 = add i32 %49, 1
  store i32 %50, ptr %1, align 4
  br label %51

51:                                               ; preds = %44, %48
  %storemerge106 = phi i32 [ 262, %48 ], [ 6, %44 ]
  store i32 %storemerge106, ptr %16, align 8
  br label %98

52:                                               ; preds = %.critedge
  %53 = tail call noalias ptr @_emalloc_56() #15
  tail call void @_zend_hash_init(ptr noundef %53, i32 noundef 8, ptr noundef nonnull @zend_property_guard_dtor, i1 noundef zeroext false) #15
  %54 = ptrtoint ptr %31 to i64
  %55 = or i64 %54, 1
  %56 = inttoptr i64 %55 to ptr
  store ptr %56, ptr %3, align 8
  %57 = getelementptr inbounds i8, ptr %3, i64 8
  store i32 13, ptr %57, align 8
  %58 = call ptr @zend_hash_add_new(ptr noundef %53, ptr noundef nonnull %19, ptr noundef nonnull %3) #15
  %.not99 = icmp eq ptr %58, null
  br i1 %.not99, label %62, label %59

59:                                               ; preds = %52
  %60 = load ptr, ptr %58, align 8
  %61 = icmp ne ptr %60, null
  call void @llvm.assume(i1 %61)
  br label %62

62:                                               ; preds = %52, %59
  %63 = getelementptr inbounds i8, ptr %15, i64 9
  %64 = load i8, ptr %63, align 1
  %.not100 = icmp eq i8 %64, 0
  br i1 %.not100, label %72, label %65

65:                                               ; preds = %62
  %66 = load ptr, ptr %15, align 8
  %67 = load i32, ptr %66, align 4
  %68 = icmp ne i32 %67, 0
  call void @llvm.assume(i1 %68)
  %69 = add i32 %67, -1
  store i32 %69, ptr %66, align 4
  %.not101 = icmp eq i32 %69, 0
  br i1 %.not101, label %70, label %72

70:                                               ; preds = %65
  %71 = load ptr, ptr %15, align 8
  call void @_efree(ptr noundef %71) #15
  br label %72

72:                                               ; preds = %62, %65, %70
  store ptr %53, ptr %15, align 8
  store i32 775, ptr %16, align 8
  br label %92

73:                                               ; preds = %2
  %74 = load ptr, ptr %15, align 8, !nonnull !4, !noundef !4
  %75 = tail call ptr @zend_hash_find(ptr noundef nonnull %74, ptr noundef %1) #15
  %.not98 = icmp eq ptr %75, null
  br i1 %.not98, label %92, label %76

76:                                               ; preds = %73
  %77 = load ptr, ptr %75, align 8
  %78 = ptrtoint ptr %77 to i64
  %79 = and i64 %78, -2
  %80 = inttoptr i64 %79 to ptr
  br label %98

81:                                               ; preds = %2
  store ptr %1, ptr %15, align 8
  %82 = getelementptr inbounds i8, ptr %1, i64 4
  %83 = load i32, ptr %82, align 4
  %84 = and i32 %83, 64
  %.not = icmp eq i32 %84, 0
  br i1 %.not, label %85, label %88

85:                                               ; preds = %81
  %86 = load i32, ptr %1, align 4
  %87 = add i32 %86, 1
  store i32 %87, ptr %1, align 4
  br label %88

88:                                               ; preds = %81, %85
  %storemerge = phi i32 [ 262, %85 ], [ 6, %81 ]
  store i32 %storemerge, ptr %16, align 8
  %89 = getelementptr inbounds i8, ptr %15, i64 12
  %90 = load i32, ptr %89, align 4
  %91 = and i32 %90, -16
  store i32 %91, ptr %89, align 4
  br label %98

92:                                               ; preds = %73, %72
  %.091 = phi ptr [ %53, %72 ], [ %74, %73 ]
  %93 = call noalias ptr @_emalloc_8() #15
  store i32 0, ptr %93, align 4
  store ptr %93, ptr %4, align 8
  %94 = getelementptr inbounds i8, ptr %4, i64 8
  store i32 13, ptr %94, align 8
  %95 = call ptr @zend_hash_add_new(ptr noundef %.091, ptr noundef %1, ptr noundef nonnull %4) #15
  %.not102 = icmp eq ptr %95, null
  br i1 %.not102, label %98, label %96

96:                                               ; preds = %92
  %97 = load ptr, ptr %95, align 8, !nonnull !4, !noundef !4
  br label %98

98:                                               ; preds = %96, %92, %88, %76, %51, %29
  %.090 = phi ptr [ %30, %29 ], [ %31, %51 ], [ %80, %76 ], [ %89, %88 ], [ %97, %96 ], [ null, %92 ]
  ret ptr %.090
}